; Function Attrs: mustprogress uwtable
define dso_local void @_ZN7doctest6StringC2EPKc(ptr noundef nonnull writeonly align 8 captures(none) dereferenceable(24) initializes((23, 24)) %0, ptr noundef readonly captures(none) %1) unnamed_addr #8 align 2 {
  %3 = tail call i64 @strlen(ptr noundef nonnull dereferenceable(1) %1) #52
  %4 = trunc i64 %3 to i32
  %5 = icmp ult i32 %4, 24
  br i1 %5, label %6, label %12

6:                                                ; preds = %2
  %7 = and i64 %3, 31
  %8 = getelementptr inbounds nuw [24 x i8], ptr %0, i64 0, i64 %7
  store i8 0, ptr %8, align 1, !tbaa !38
  %9 = trunc i64 %3 to i8
  %10 = sub nuw nsw i8 23, %9
  %11 = getelementptr inbounds nuw i8, ptr %0, i64 23
  store i8 %10, ptr %11, align 1, !tbaa !38
  br label %_ZN7doctest6StringC2EPKcj.exit

12:                                               ; preds = %2
  %13 = getelementptr inbounds nuw i8, ptr %0, i64 23
  store i8 -128, ptr %13, align 1, !tbaa !38
  %14 = getelementptr inbounds nuw i8, ptr %0, i64 8
  store i32 %4, ptr %14, align 8, !tbaa !38
  %15 = add i32 %4, 1
  %16 = getelementptr inbounds nuw i8, ptr %0, i64 12
  store i32 %15, ptr %16, align 4, !tbaa !38
  %17 = zext i32 %15 to i64
  %18 = tail call noalias noundef nonnull ptr @_Znam(i64 noundef %17) #51
  store ptr %18, ptr %0, align 8, !tbaa !38
  %19 = and i64 %3, 4294967295
  %20 = getelementptr inbounds nuw i8, ptr %18, i64 %19
  store i8 0, ptr %20, align 1, !tbaa !38
  br label %_ZN7doctest6StringC2EPKcj.exit

_ZN7doctest6StringC2EPKcj.exit:                   ; preds = %6, %12
  %.pre-phi.i = phi i64 [ %7, %6 ], [ %19, %12 ]
  %.0.i.i = phi ptr [ %0, %6 ], [ %18, %12 ]
  tail call void @llvm.memcpy.p0.p0.i64(ptr nonnull align 1 %.0.i.i, ptr nonnull readonly align 1 %1, i64 %.pre-phi.i, i1 false)
  ret void
}